; ModuleID = 'source-C-CXX/36/1556.c'
source_filename = "source-C-CXX/36/1556.c"
target datalayout = "e-m:e-p270:32:32-p271:32:32-p272:64:64-i64:64-f80:128-n8:16:32:64-S128"
target triple = "x86_64-pc-linux-gnu"

@.str = private unnamed_addr constant [3 x i8] c"%d\00", align 1
@.str.1 = private unnamed_addr constant [3 x i8] c"%s\00", align 1
@.str.3 = private unnamed_addr constant [4 x i8] c"%c\0A\00", align 1
@str = private unnamed_addr constant [3 x i8] c"no\00", align 1

; Function Attrs: nofree nounwind sspstrong uwtable
define dso_local i32 @main() local_unnamed_addr #0 {
  %1 = alloca i32, align 4
  %2 = alloca [100 x [1000 x i8]], align 16
  %3 = bitcast i32* %1 to i8*
  call void @llvm.lifetime.start.p0i8(i64 4, i8* nonnull %3) #6
  %4 = call i32 (i8*, ...) @__isoc99_scanf(i8* getelementptr inbounds ([3 x i8], [3 x i8]* @.str, i64 0, i64 0), i32* nonnull %1)
  %5 = getelementptr inbounds [100 x [1000 x i8]], [100 x [1000 x i8]]* %2, i64 0, i64 0, i64 0
  call void @llvm.lifetime.start.p0i8(i64 100000, i8* nonnull %5) #6
  %6 = load i32, i32* %1, align 4, !tbaa !5
  %7 = icmp slt i32 %6, 1
  br i1 %7, label %49, label %8

8:                                                ; preds = %0, %44
  %9 = phi i64 [ %45, %44 ], [ 1, %0 ]
  %10 = getelementptr inbounds [100 x [1000 x i8]], [100 x [1000 x i8]]* %2, i64 0, i64 %9, i64 0
  %11 = call i32 (i8*, ...) @__isoc99_scanf(i8* getelementptr inbounds ([3 x i8], [3 x i8]* @.str.1, i64 0, i64 0), i8* nonnull %10)
  %12 = call i64 @strlen(i8* noundef nonnull dereferenceable(1) %10) #7
  %13 = trunc i64 %12 to i32
  %14 = icmp sgt i32 %13, 0
  br i1 %14, label %15, label %39

15:                                               ; preds = %8
  %16 = and i64 %12, 4294967295
  br label %17

17:                                               ; preds = %31, %15
  %18 = phi i64 [ 0, %15 ], [ %32, %31 ]
  %19 = getelementptr inbounds [100 x [1000 x i8]], [100 x [1000 x i8]]* %2, i64 0, i64 %9, i64 %18
  %20 = load i8, i8* %19, align 1, !tbaa !9
  br label %23

21:                                               ; preds = %23
  %22 = icmp eq i64 %30, %16
  br i1 %22, label %34, label %23, !llvm.loop !10

23:                                               ; preds = %21, %17
  %24 = phi i64 [ 0, %17 ], [ %30, %21 ]
  %25 = getelementptr inbounds [100 x [1000 x i8]], [100 x [1000 x i8]]* %2, i64 0, i64 %9, i64 %24
  %26 = load i8, i8* %25, align 1, !tbaa !9
  %27 = icmp ne i8 %20, %26
  %28 = icmp eq i64 %18, %24
  %29 = select i1 %27, i1 true, i1 %28
  %30 = add nuw nsw i64 %24, 1
  br i1 %29, label %21, label %31

31:                                               ; preds = %23
  %32 = add nuw nsw i64 %18, 1
  %33 = icmp eq i64 %32, %16
  br i1 %33, label %39, label %17, !llvm.loop !12

34:                                               ; preds = %21
  %35 = and i64 %18, 4294967295
  %36 = getelementptr inbounds [100 x [1000 x i8]], [100 x [1000 x i8]]* %2, i64 0, i64 %9, i64 %35
  %37 = load i8, i8* %36, align 1, !tbaa !9
  %38 = icmp eq i8 %37, 43
  br i1 %38, label %39, label %41

39:                                               ; preds = %31, %8, %34
  %40 = call i32 @puts(i8* nonnull dereferenceable(1) getelementptr inbounds ([3 x i8], [3 x i8]* @str, i64 0, i64 0))
  br label %44

41:                                               ; preds = %34
  %42 = sext i8 %37 to i32
  %43 = call i32 (i8*, ...) @printf(i8* nonnull dereferenceable(1) getelementptr inbounds ([4 x i8], [4 x i8]* @.str.3, i64 0, i64 0), i32 %42)
  br label %44

44:                                               ; preds = %39, %41
  %45 = add nuw nsw i64 %9, 1
  %46 = load i32, i32* %1, align 4, !tbaa !5
  %47 = sext i32 %46 to i64
  %48 = icmp slt i64 %9, %47
  br i1 %48, label %8, label %49, !llvm.loop !13

49:                                               ; preds = %44, %0
  call void @llvm.lifetime.end.p0i8(i64 100000, i8* nonnull %5) #6
  call void @llvm.lifetime.end.p0i8(i64 4, i8* nonnull %3) #6
  ret i32 0
}

; Function Attrs: argmemonly mustprogress nofree nosync nounwind willreturn
declare void @llvm.lifetime.start.p0i8(i64 immarg, i8* nocapture) #1

; Function Attrs: nofree nounwind
declare noundef i32 @__isoc99_scanf(i8* nocapture noundef readonly, ...) local_unnamed_addr #2

; Function Attrs: nofree nounwind readonly sspstrong uwtable
define dso_local signext i8 @check(i8* nocapture readonly %0) local_unnamed_addr #3 {
  %2 = tail call i64 @strlen(i8* noundef nonnull dereferenceable(1) %0) #7
  %3 = trunc i64 %2 to i32
  %4 = icmp sgt i32 %3, 0
  br i1 %4, label %5, label %28

5:                                                ; preds = %1
  %6 = and i64 %2, 4294967295
  br label %7

7:                                                ; preds = %5, %21
  %8 = phi i64 [ 0, %5 ], [ %22, %21 ]
  %9 = getelementptr inbounds i8, i8* %0, i64 %8
  %10 = load i8, i8* %9, align 1, !tbaa !9
  br label %13

11:                                               ; preds = %13
  %12 = icmp eq i64 %20, %6
  br i1 %12, label %24, label %13, !llvm.loop !10

13:                                               ; preds = %7, %11
  %14 = phi i64 [ 0, %7 ], [ %20, %11 ]
  %15 = getelementptr inbounds i8, i8* %0, i64 %14
  %16 = load i8, i8* %15, align 1, !tbaa !9
  %17 = icmp ne i8 %10, %16
  %18 = icmp eq i64 %8, %14
  %19 = select i1 %17, i1 true, i1 %18
  %20 = add nuw nsw i64 %14, 1
  br i1 %19, label %11, label %21

21:                                               ; preds = %13
  %22 = add nuw nsw i64 %8, 1
  %23 = icmp eq i64 %22, %6
  br i1 %23, label %28, label %7, !llvm.loop !12

24:                                               ; preds = %11
  %25 = and i64 %8, 4294967295
  %26 = getelementptr inbounds i8, i8* %0, i64 %25
  %27 = load i8, i8* %26, align 1, !tbaa !9
  br label %28

28:                                               ; preds = %21, %1, %24
  %29 = phi i8 [ %27, %24 ], [ 43, %1 ], [ 43, %21 ]
  ret i8 %29
}

; Function Attrs: nofree nounwind
declare noundef i32 @printf(i8* nocapture noundef readonly, ...) local_unnamed_addr #2

; Function Attrs: argmemonly mustprogress nofree nosync nounwind willreturn
declare void @llvm.lifetime.end.p0i8(i64 immarg, i8* nocapture) #1

; Function Attrs: argmemonly mustprogress nofree nounwind readonly willreturn
declare i64 @strlen(i8* nocapture) local_unnamed_addr #4

; Function Attrs: nofree nounwind
declare noundef i32 @puts(i8* nocapture noundef readonly) local_unnamed_addr #5


!llvm.module.flags = !{!0, !1, !2, !3}
!llvm.ident = !{!4}

!0 = !{i32 1, !"wchar_size", i32 4}
!1 = !{i32 7, !"PIC Level", i32 2}
!2 = !{i32 7, !"PIE Level", i32 2}
!3 = !{i32 7, !"uwtable", i32 1}
!4 = !{!"clang version 13.0.0"}
!5 = !{!6, !6, i64 0}
!6 = !{!"int", !7, i64 0}
!7 = !{!"omnipotent char", !8, i64 0}
!8 = !{!"Simple C/C++ TBAA"}
!9 = !{!7, !7, i64 0}
!10 = distinct !{!10, !11}
!11 = !{!"llvm.loop.mustprogress"}
!12 = distinct !{!12, !11}
!13 = distinct !{!13, !11}
